             reset:
00000000: 080001a3  j boot_main
00000004: 00000000  nop
00000008: 080001a3  j boot_main
0000000c: 00000000  nop
00000010: 080001a3  j boot_main
00000014: 00000000  nop
00000018: 080001a3  j boot_main
0000001c: 00000000  nop
00000020: 080001a3  j boot_main
00000024: 00000000  nop
00000028: 080001a3  j boot_main
0000002c: 00000000  nop
00000030: 080001a3  j boot_main
00000034: 00000000  nop
00000038: 080001a3  j boot_main
0000003c: 00000000  nop
00000040: 080001a3  j boot_main
00000044: 00000000  nop
00000048: 080001a3  j boot_main
0000004c: 00000000  nop
00000050: 080001a3  j boot_main
00000054: 00000000  nop
00000058: 080001a3  j boot_main
0000005c: 00000000  nop
00000060: 080001a3  j boot_main
00000064: 00000000  nop
00000068: 080001a3  j boot_main
0000006c: 00000000  nop
00000070: 080001a3  j boot_main
00000074: 00000000  nop
00000078: 080001a3  j boot_main
0000007c: 00000000  nop
00000080: 080001a3  j boot_main
00000084: 00000000  nop
00000088: 080001a3  j boot_main
0000008c: 00000000  nop
00000090: 080001a3  j boot_main
00000094: 00000000  nop
00000098: 080001a3  j boot_main
0000009c: 00000000  nop
000000a0: 080001a3  j boot_main
000000a4: 00000000  nop
000000a8: 080001a3  j boot_main
000000ac: 00000000  nop
000000b0: 080001a3  j boot_main
000000b4: 00000000  nop
000000b8: 080001a3  j boot_main
000000bc: 00000000  nop
000000c0: 080001a3  j boot_main
000000c4: 00000000  nop
000000c8: 080001a3  j boot_main
000000cc: 00000000  nop
000000d0: 080001a3  j boot_main
000000d4: 00000000  nop
000000d8: 080001a3  j boot_main
000000dc: 00000000  nop
000000e0: 080001a3  j boot_main
000000e4: 00000000  nop
000000e8: 080001a3  j boot_main
000000ec: 00000000  nop
000000f0: 080001a3  j boot_main
000000f4: 00000000  nop
000000f8: 080001a3  j boot_main
000000fc: 00000000  nop
00000100: 080001a3  j boot_main
00000104: 00000000  nop
00000108: 080001a3  j boot_main
0000010c: 00000000  nop
00000110: 080001a3  j boot_main
00000114: 00000000  nop
00000118: 080001a3  j boot_main
0000011c: 00000000  nop
00000120: 080001a3  j boot_main
00000124: 00000000  nop
00000128: 080001a3  j boot_main
0000012c: 00000000  nop
00000130: 080001a3  j boot_main
00000134: 00000000  nop
00000138: 080001a3  j boot_main
0000013c: 00000000  nop
00000140: 080001a3  j boot_main
00000144: 00000000  nop
00000148: 080001a3  j boot_main
0000014c: 00000000  nop
00000150: 080001a3  j boot_main
00000154: 00000000  nop
00000158: 080001a3  j boot_main
0000015c: 00000000  nop
00000160: 080001a3  j boot_main
00000164: 00000000  nop
00000168: 080001a3  j boot_main
0000016c: 00000000  nop
00000170: 080001a3  j boot_main
00000174: 00000000  nop
00000178: 080001a3  j boot_main
0000017c: 00000000  nop
             exception_vector:
00000180: afbafffc  sw $k0,-4($sp)
00000184: afbbfff8  sw $k1,-8($sp)
00000188: 3c1a1000  lui $k0,0x1000
0000018c: 375a2000  ori $k0,$k0,0x2000
00000190: 8f5b000c  lw $k1,12($k0)
00000194: 337b0001  andi $k1,$k1,0x0001
00000198: 1360006a  beq $k1,$zero,exception_done
0000019c: 00000000  nop
000001a0: 201b0001  addi $k1,$zero,1
000001a4: af5b000c  sw $k1,12($k0)
000001a8: 3c1a0001  lui $k0,0x0001
000001ac: 375a0204  ori $k0,$k0,0x0204
000001b0: 8f5b0000  lw $k1,0($k0)
000001b4: 237b0001  addi $k1,$k1,1
000001b8: af5b0000  sw $k1,0($k0)
000001bc: 3c1a0001  lui $k0,0x0001
000001c0: 375a0200  ori $k0,$k0,0x0200
000001c4: 8f5b0000  lw $k1,0($k0)
000001c8: 13600005  beq $k1,$zero,save_tcb0
000001cc: 00000000  nop
000001d0: 3c1a0001  lui $k0,0x0001
000001d4: 375a0100  ori $k0,$k0,0x0100
000001d8: 08000079  j save_tcb_ready
000001dc: 00000000  nop
             save_tcb0:
000001e0: 3c1a0001  lui $k0,0x0001
             save_tcb_ready:
000001e4: 401b7000  mfc0 $k1,EPC
000001e8: af5b0000  sw $k1,0($k0)
000001ec: af410014  sw $1,20($k0)
000001f0: af420018  sw $2,24($k0)
000001f4: af43001c  sw $3,28($k0)
000001f8: af440020  sw $4,32($k0)
000001fc: af450024  sw $5,36($k0)
00000200: af460028  sw $6,40($k0)
00000204: af47002c  sw $7,44($k0)
00000208: af480030  sw $8,48($k0)
0000020c: af490034  sw $9,52($k0)
00000210: af4a0038  sw $10,56($k0)
00000214: af4b003c  sw $11,60($k0)
00000218: af4c0040  sw $12,64($k0)
0000021c: af4d0044  sw $13,68($k0)
00000220: af4e0048  sw $14,72($k0)
00000224: af4f004c  sw $15,76($k0)
00000228: af500050  sw $16,80($k0)
0000022c: af510054  sw $17,84($k0)
00000230: af520058  sw $18,88($k0)
00000234: af53005c  sw $19,92($k0)
00000238: af540060  sw $20,96($k0)
0000023c: af550064  sw $21,100($k0)
00000240: af560068  sw $22,104($k0)
00000244: af57006c  sw $23,108($k0)
00000248: af580070  sw $24,112($k0)
0000024c: af590074  sw $25,116($k0)
00000250: af5c0080  sw $28,128($k0)
00000254: af5d0084  sw $29,132($k0)
00000258: af5e0088  sw $30,136($k0)
0000025c: af5f008c  sw $31,140($k0)
00000260: 8fbbfffc  lw $k1,-4($sp)
00000264: af5b0078  sw $k1,120($k0)
00000268: 8fbbfff8  lw $k1,-8($sp)
0000026c: af5b007c  sw $k1,124($k0)
00000270: 3c1a0001  lui $k0,0x0001
00000274: 375a0200  ori $k0,$k0,0x0200
00000278: 8f5b0000  lw $k1,0($k0)
0000027c: 3b7b0001  xori $k1,$k1,0x0001
00000280: af5b0000  sw $k1,0($k0)
00000284: 13600005  beq $k1,$zero,restore_tcb0
00000288: 00000000  nop
0000028c: 3c1a0001  lui $k0,0x0001
00000290: 375a0100  ori $k0,$k0,0x0100
00000294: 080000a8  j restore_tcb_ready
00000298: 00000000  nop
             restore_tcb0:
0000029c: 3c1a0001  lui $k0,0x0001
             restore_tcb_ready:
000002a0: 8f5b0004  lw $k1,4($k0)
000002a4: 237b0001  addi $k1,$k1,1
000002a8: af5b0004  sw $k1,4($k0)
000002ac: 8f5b0000  lw $k1,0($k0)
000002b0: 409b7000  mtc0 $k1,EPC
000002b4: 00000000  nop
000002b8: 00000000  nop
000002bc: 00000000  nop
000002c0: 8f410014  lw $1,20($k0)
000002c4: 8f420018  lw $2,24($k0)
000002c8: 8f43001c  lw $3,28($k0)
000002cc: 8f440020  lw $4,32($k0)
000002d0: 8f450024  lw $5,36($k0)
000002d4: 8f460028  lw $6,40($k0)
000002d8: 8f47002c  lw $7,44($k0)
000002dc: 8f480030  lw $8,48($k0)
000002e0: 8f490034  lw $9,52($k0)
000002e4: 8f4a0038  lw $10,56($k0)
000002e8: 8f4b003c  lw $11,60($k0)
000002ec: 8f4c0040  lw $12,64($k0)
000002f0: 8f4d0044  lw $13,68($k0)
000002f4: 8f4e0048  lw $14,72($k0)
000002f8: 8f4f004c  lw $15,76($k0)
000002fc: 8f500050  lw $16,80($k0)
00000300: 8f510054  lw $17,84($k0)
00000304: 8f520058  lw $18,88($k0)
00000308: 8f53005c  lw $19,92($k0)
0000030c: 8f540060  lw $20,96($k0)
00000310: 8f550064  lw $21,100($k0)
00000314: 8f560068  lw $22,104($k0)
00000318: 8f57006c  lw $23,108($k0)
0000031c: 8f580070  lw $24,112($k0)
00000320: 8f590074  lw $25,116($k0)
00000324: 8f5c0080  lw $28,128($k0)
00000328: 8f5d0084  lw $29,132($k0)
0000032c: 8f5e0088  lw $30,136($k0)
00000330: 8f5f008c  lw $31,140($k0)
00000334: 8f5b007c  lw $k1,124($k0)
00000338: 8f5a0078  lw $k0,120($k0)
0000033c: 42000018  eret
00000340: 00000000  nop
             exception_done:
00000344: 8fbafffc  lw $k0,-4($sp)
00000348: 8fbbfff8  lw $k1,-8($sp)
0000034c: 42000018  eret
00000350: 00000000  nop
             putc:
00000354: 8e080008  lw $t0,8($s0)
00000358: 31080001  andi $t0,$t0,0x0001
0000035c: 1100fffd  beq $t0,$zero,putc
00000360: 00000000  nop
00000364: ae040000  sw $a0,0($s0)
00000368: 03e00008  jr $ra
0000036c: 00000000  nop
             getc_block:
00000370: 8e020008  lw $v0,8($s0)
00000374: 30420002  andi $v0,$v0,0x0002
00000378: 1040fffd  beq $v0,$zero,getc_block
0000037c: 00000000  nop
00000380: 8e020004  lw $v0,4($s0)
00000384: 304200ff  andi $v0,$v0,0x00ff
00000388: 03e00008  jr $ra
0000038c: 00000000  nop
             drain_line:
00000390: 23bdfffc  addi $sp,$sp,-4
00000394: afbf0000  sw $ra,0($sp)
             drain_loop:
00000398: 0c0000dc  jal getc_block
0000039c: 00000000  nop
000003a0: 2008000d  addi $t0,$zero,13
000003a4: 10480004  beq $v0,$t0,drain_done
000003a8: 00000000  nop
000003ac: 2008000a  addi $t0,$zero,10
000003b0: 1448fff9  bne $v0,$t0,drain_loop
000003b4: 00000000  nop
             drain_done:
000003b8: 8fbf0000  lw $ra,0($sp)
000003bc: 23bd0004  addi $sp,$sp,4
000003c0: 03e00008  jr $ra
000003c4: 00000000  nop
             mem_test:
000003c8: 23bdfffc  addi $sp,$sp,-4
000003cc: afbf0000  sw $ra,0($sp)
000003d0: 8e880000  lw $t0,0($s4)
000003d4: 31080001  andi $t0,$t0,0x0001
000003d8: 15000007  bne $t0,$zero,mem_calibrated
000003dc: 00000000  nop
000003e0: 0c00024e  jal print_ddr_wait
000003e4: 00000000  nop
000003e8: 8fbf0000  lw $ra,0($sp)
000003ec: 23bd0004  addi $sp,$sp,4
000003f0: 03e00008  jr $ra
000003f4: 00000000  nop
             mem_calibrated:
000003f8: 0c000272  jal print_ddr_cal_ok
000003fc: 00000000  nop
00000400: 3c081357  lui $t0,0x1357
00000404: 35082468  ori $t0,$t0,0x2468
00000408: aea80020  sw $t0,32($s5)
0000040c: 8ea90020  lw $t1,32($s5)
00000410: 150900e3  bne $t0,$t1,fail_d
00000414: 00000000  nop
00000418: 3c082468  lui $t0,0x2468
0000041c: 3508ace0  ori $t0,$t0,0xace0
00000420: aea80024  sw $t0,36($s5)
00000424: 8ea90024  lw $t1,36($s5)
00000428: 150900dd  bne $t0,$t1,fail_d
0000042c: 00000000  nop
00000430: 0c00029c  jal print_ddr_test_ok
00000434: 00000000  nop
00000438: 8fbf0000  lw $ra,0($sp)
0000043c: 23bd0004  addi $sp,$sp,4
00000440: 03e00008  jr $ra
00000444: 00000000  nop
             os_call:
00000448: 20080001  addi $t0,$zero,1
0000044c: 10480012  beq $v0,$t0,os_call_putchar
00000450: 00000000  nop
00000454: 20080002  addi $t0,$zero,2
00000458: 10480017  beq $v0,$t0,os_call_getchar
0000045c: 00000000  nop
00000460: 20080003  addi $t0,$zero,3
00000464: 1048001c  beq $v0,$t0,os_call_yield
00000468: 00000000  nop
0000046c: 20080004  addi $t0,$zero,4
00000470: 1048001b  beq $v0,$t0,os_call_led
00000474: 00000000  nop
00000478: 20080005  addi $t0,$zero,5
0000047c: 1048001b  beq $v0,$t0,os_call_ps
00000480: 00000000  nop
00000484: 20080006  addi $t0,$zero,6
00000488: 10480020  beq $v0,$t0,os_call_mem
0000048c: 00000000  nop
00000490: 03e00008  jr $ra
00000494: 00000000  nop
             os_call_putchar:
00000498: 23bdfffc  addi $sp,$sp,-4
0000049c: afbf0000  sw $ra,0($sp)
000004a0: 0c0000d5  jal putc
000004a4: 00000000  nop
000004a8: 8fbf0000  lw $ra,0($sp)
000004ac: 23bd0004  addi $sp,$sp,4
000004b0: 03e00008  jr $ra
000004b4: 00000000  nop
             os_call_getchar:
000004b8: 23bdfffc  addi $sp,$sp,-4
000004bc: afbf0000  sw $ra,0($sp)
000004c0: 0c0000dc  jal getc_block
000004c4: 00000000  nop
000004c8: 8fbf0000  lw $ra,0($sp)
000004cc: 23bd0004  addi $sp,$sp,4
000004d0: 03e00008  jr $ra
000004d4: 00000000  nop
             os_call_yield:
000004d8: 03e00008  jr $ra
000004dc: 00000000  nop
             os_call_led:
000004e0: ae240000  sw $a0,0($s1)
000004e4: 03e00008  jr $ra
000004e8: 00000000  nop
             os_call_ps:
000004ec: 23bdfffc  addi $sp,$sp,-4
000004f0: afbf0000  sw $ra,0($sp)
000004f4: 0c000386  jal print_ps
000004f8: 00000000  nop
000004fc: 8fbf0000  lw $ra,0($sp)
00000500: 23bd0004  addi $sp,$sp,4
00000504: 03e00008  jr $ra
00000508: 00000000  nop
             os_call_mem:
0000050c: 23bdfffc  addi $sp,$sp,-4
00000510: afbf0000  sw $ra,0($sp)
00000514: 0c0000f2  jal mem_test
00000518: 00000000  nop
0000051c: 8fbf0000  lw $ra,0($sp)
00000520: 23bd0004  addi $sp,$sp,4
00000524: 03e00008  jr $ra
00000528: 00000000  nop
             shell_task:
0000052c: 0c000320  jal print_prompt
00000530: 00000000  nop
00000534: 0c0000dc  jal getc_block
00000538: 00000000  nop
0000053c: 2008000d  addi $t0,$zero,13
00000540: 1048fffa  beq $v0,$t0,shell_task
00000544: 00000000  nop
00000548: 2008000a  addi $t0,$zero,10
0000054c: 1048fff7  beq $v0,$t0,shell_task
00000550: 00000000  nop
00000554: 20080068  addi $t0,$zero,104
00000558: 1048000f  beq $v0,$t0,cmd_help
0000055c: 00000000  nop
00000560: 20080070  addi $t0,$zero,112
00000564: 10480012  beq $v0,$t0,cmd_ps
00000568: 00000000  nop
0000056c: 2008006d  addi $t0,$zero,109
00000570: 10480016  beq $v0,$t0,cmd_mem
00000574: 00000000  nop
00000578: 2008006c  addi $t0,$zero,108
0000057c: 1048001a  beq $v0,$t0,cmd_led
00000580: 00000000  nop
00000584: 20080072  addi $t0,$zero,114
00000588: 10480021  beq $v0,$t0,cmd_run
0000058c: 00000000  nop
00000590: 0800018e  j cmd_unknown
00000594: 00000000  nop
             cmd_help:
00000598: 0c0000e4  jal drain_line
0000059c: 00000000  nop
000005a0: 0c000341  jal print_help
000005a4: 00000000  nop
000005a8: 0800014b  j shell_task
000005ac: 00000000  nop
             cmd_ps:
000005b0: 0c0000e4  jal drain_line
000005b4: 00000000  nop
000005b8: 20020005  addi $v0,$zero,5
000005bc: 0c000112  jal os_call
000005c0: 00000000  nop
000005c4: 0800014b  j shell_task
000005c8: 00000000  nop
             cmd_mem:
000005cc: 0c0000e4  jal drain_line
000005d0: 00000000  nop
000005d4: 20020006  addi $v0,$zero,6
000005d8: 0c000112  jal os_call
000005dc: 00000000  nop
000005e0: 0800014b  j shell_task
000005e4: 00000000  nop
             cmd_led:
000005e8: 0c0000e4  jal drain_line
000005ec: 00000000  nop
000005f0: 20020004  addi $v0,$zero,4
000005f4: 20040001  addi $a0,$zero,1
000005f8: 0c000112  jal os_call
000005fc: 00000000  nop
00000600: 0c0003d7  jal print_ok
00000604: 00000000  nop
00000608: 0800014b  j shell_task
0000060c: 00000000  nop
             cmd_run:
00000610: 0c0000e4  jal drain_line
00000614: 00000000  nop
00000618: 3c080001  lui $t0,0x0001
0000061c: 35080208  ori $t0,$t0,0x0208
00000620: 20090001  addi $t1,$zero,1
00000624: ad090000  sw $t1,0($t0)
00000628: 0c0003e9  jal print_demo_started
0000062c: 00000000  nop
00000630: 0800014b  j shell_task
00000634: 00000000  nop
             cmd_unknown:
00000638: 0c0000e4  jal drain_line
0000063c: 00000000  nop
00000640: 0c000419  jal print_unknown
00000644: 00000000  nop
00000648: 0800014b  j shell_task
0000064c: 00000000  nop
             demo_task:
00000650: 3c080001  lui $t0,0x0001
00000654: 35080208  ori $t0,$t0,0x0208
00000658: 8d090000  lw $t1,0($t0)
0000065c: 11200006  beq $t1,$zero,demo_idle
00000660: 00000000  nop
00000664: 3c080001  lui $t0,0x0001
00000668: 3508020c  ori $t0,$t0,0x020c
0000066c: 8d090000  lw $t1,0($t0)
00000670: 21290001  addi $t1,$t1,1
00000674: ad090000  sw $t1,0($t0)
             demo_idle:
00000678: 20020003  addi $v0,$zero,3
0000067c: 0c000112  jal os_call
00000680: 00000000  nop
00000684: 08000194  j demo_task
00000688: 00000000  nop
             boot_main:
0000068c: 3c101000  lui $s0,0x1000
00000690: 36101000  ori $s0,$s0,0x1000
00000694: 3c111000  lui $s1,0x1000
00000698: 3c121000  lui $s2,0x1000
0000069c: 36522000  ori $s2,$s2,0x2000
000006a0: 3c131000  lui $s3,0x1000
000006a4: 36733000  ori $s3,$s3,0x3000
000006a8: 3c141000  lui $s4,0x1000
000006ac: 36944000  ori $s4,$s4,0x4000
000006b0: 3c158000  lui $s5,0x8000
000006b4: 3c1d0001  lui $sp,0x0001
000006b8: 37bd0c00  ori $sp,$sp,0x0c00
000006bc: 20080000  addi $t0,$zero,0
000006c0: 40886000  mtc0 $t0,Status
000006c4: 00000000  nop
000006c8: 00000000  nop
000006cc: 00000000  nop
000006d0: ae200000  sw $zero,0($s1)
000006d4: 0c0001ee  jal print_banner
000006d8: 00000000  nop
             wait_ddr_cal:
000006dc: 8e880000  lw $t0,0($s4)
000006e0: 31080001  andi $t0,$t0,0x0001
000006e4: 15000003  bne $t0,$zero,boot_ddr_ready
000006e8: 00000000  nop
000006ec: 080001b7  j wait_ddr_cal
000006f0: 00000000  nop
             boot_ddr_ready:
000006f4: 0c0000f2  jal mem_test
000006f8: 00000000  nop
000006fc: 3c080001  lui $t0,0x0001
00000700: 200900c0  addi $t1,$zero,192
             zero_os_state:
00000704: ad000000  sw $zero,0($t0)
00000708: 21080004  addi $t0,$t0,4
0000070c: 2129ffff  addi $t1,$t1,-1
00000710: 1520fffc  bne $t1,$zero,zero_os_state
00000714: 00000000  nop
00000718: 3c080001  lui $t0,0x0001
0000071c: 20090001  addi $t1,$zero,1
00000720: ad090008  sw $t1,8($t0)
00000724: 3c080001  lui $t0,0x0001
00000728: 35080100  ori $t0,$t0,0x0100
0000072c: ad090008  sw $t1,8($t0)
00000730: 3c090000  lui $t1,%hi(demo_task)
00000734: 35290650  ori $t1,$t1,%lo(demo_task)
00000738: ad090000  sw $t1,0($t0)
0000073c: 3c090001  lui $t1,0x0001
00000740: 35290f00  ori $t1,$t1,0x0f00
00000744: ad090084  sw $t1,132($t0)
00000748: 3c080001  lui $t0,0x0001
0000074c: 35080200  ori $t0,$t0,0x0200
00000750: ad000000  sw $zero,0($t0)
00000754: ae400000  sw $zero,0($s2)
00000758: 20080001  addi $t0,$zero,1
0000075c: ae48000c  sw $t0,12($s2)
00000760: ae680004  sw $t0,4($s3)
00000764: 20080007  addi $t0,$zero,7
00000768: ae480008  sw $t0,8($s2)
0000076c: 0c0002c9  jal print_os_init_ok
00000770: 00000000  nop
00000774: 0c0002f3  jal print_sched_ready
00000778: 00000000  nop
0000077c: 2008005a  addi $t0,$zero,90
00000780: ae280000  sw $t0,0($s1)
00000784: 20080001  addi $t0,$zero,1
00000788: 40886000  mtc0 $t0,Status
0000078c: 00000000  nop
00000790: 00000000  nop
00000794: 00000000  nop
00000798: 0800014b  j shell_task
0000079c: 00000000  nop
             fail_d:
000007a0: 200800f0  addi $t0,$zero,240
000007a4: ae280000  sw $t0,0($s1)
000007a8: 0c000428  jal print_fail_d
000007ac: 00000000  nop
             halt:
000007b0: 080001ec  j halt
000007b4: 00000000  nop
             print_banner:
000007b8: 23bdfffc  addi $sp,$sp,-4
000007bc: afbf0000  sw $ra,0($sp)
000007c0: 20040073  addi $a0,$zero,115
000007c4: 0c0000d5  jal putc
000007c8: 00000000  nop
000007cc: 20040074  addi $a0,$zero,116
000007d0: 0c0000d5  jal putc
000007d4: 00000000  nop
000007d8: 20040065  addi $a0,$zero,101
000007dc: 0c0000d5  jal putc
000007e0: 00000000  nop
000007e4: 20040070  addi $a0,$zero,112
000007e8: 0c0000d5  jal putc
000007ec: 00000000  nop
000007f0: 2004005f  addi $a0,$zero,95
000007f4: 0c0000d5  jal putc
000007f8: 00000000  nop
000007fc: 20040069  addi $a0,$zero,105
00000800: 0c0000d5  jal putc
00000804: 00000000  nop
00000808: 2004006e  addi $a0,$zero,110
0000080c: 0c0000d5  jal putc
00000810: 00000000  nop
00000814: 20040074  addi $a0,$zero,116
00000818: 0c0000d5  jal putc
0000081c: 00000000  nop
00000820: 2004006f  addi $a0,$zero,111
00000824: 0c0000d5  jal putc
00000828: 00000000  nop
0000082c: 2004005f  addi $a0,$zero,95
00000830: 0c0000d5  jal putc
00000834: 00000000  nop
00000838: 2004006d  addi $a0,$zero,109
0000083c: 0c0000d5  jal putc
00000840: 00000000  nop
00000844: 20040069  addi $a0,$zero,105
00000848: 0c0000d5  jal putc
0000084c: 00000000  nop
00000850: 20040070  addi $a0,$zero,112
00000854: 0c0000d5  jal putc
00000858: 00000000  nop
0000085c: 20040073  addi $a0,$zero,115
00000860: 0c0000d5  jal putc
00000864: 00000000  nop
00000868: 20040020  addi $a0,$zero,32
0000086c: 0c0000d5  jal putc
00000870: 00000000  nop
00000874: 2004006c  addi $a0,$zero,108
00000878: 0c0000d5  jal putc
0000087c: 00000000  nop
00000880: 20040061  addi $a0,$zero,97
00000884: 0c0000d5  jal putc
00000888: 00000000  nop
0000088c: 20040062  addi $a0,$zero,98
00000890: 0c0000d5  jal putc
00000894: 00000000  nop
00000898: 20040031  addi $a0,$zero,49
0000089c: 0c0000d5  jal putc
000008a0: 00000000  nop
000008a4: 20040030  addi $a0,$zero,48
000008a8: 0c0000d5  jal putc
000008ac: 00000000  nop
000008b0: 20040020  addi $a0,$zero,32
000008b4: 0c0000d5  jal putc
000008b8: 00000000  nop
000008bc: 20040074  addi $a0,$zero,116
000008c0: 0c0000d5  jal putc
000008c4: 00000000  nop
000008c8: 20040069  addi $a0,$zero,105
000008cc: 0c0000d5  jal putc
000008d0: 00000000  nop
000008d4: 2004006e  addi $a0,$zero,110
000008d8: 0c0000d5  jal putc
000008dc: 00000000  nop
000008e0: 20040079  addi $a0,$zero,121
000008e4: 0c0000d5  jal putc
000008e8: 00000000  nop
000008ec: 20040020  addi $a0,$zero,32
000008f0: 0c0000d5  jal putc
000008f4: 00000000  nop
000008f8: 2004006f  addi $a0,$zero,111
000008fc: 0c0000d5  jal putc
00000900: 00000000  nop
00000904: 20040073  addi $a0,$zero,115
00000908: 0c0000d5  jal putc
0000090c: 00000000  nop
00000910: 2004000d  addi $a0,$zero,13
00000914: 0c0000d5  jal putc
00000918: 00000000  nop
0000091c: 2004000a  addi $a0,$zero,10
00000920: 0c0000d5  jal putc
00000924: 00000000  nop
00000928: 8fbf0000  lw $ra,0($sp)
0000092c: 23bd0004  addi $sp,$sp,4
00000930: 03e00008  jr $ra
00000934: 00000000  nop
             print_ddr_wait:
00000938: 23bdfffc  addi $sp,$sp,-4
0000093c: afbf0000  sw $ra,0($sp)
00000940: 20040044  addi $a0,$zero,68
00000944: 0c0000d5  jal putc
00000948: 00000000  nop
0000094c: 20040044  addi $a0,$zero,68
00000950: 0c0000d5  jal putc
00000954: 00000000  nop
00000958: 20040052  addi $a0,$zero,82
0000095c: 0c0000d5  jal putc
00000960: 00000000  nop
00000964: 20040020  addi $a0,$zero,32
00000968: 0c0000d5  jal putc
0000096c: 00000000  nop
00000970: 20040057  addi $a0,$zero,87
00000974: 0c0000d5  jal putc
00000978: 00000000  nop
0000097c: 20040041  addi $a0,$zero,65
00000980: 0c0000d5  jal putc
00000984: 00000000  nop
00000988: 20040049  addi $a0,$zero,73
0000098c: 0c0000d5  jal putc
00000990: 00000000  nop
00000994: 20040054  addi $a0,$zero,84
00000998: 0c0000d5  jal putc
0000099c: 00000000  nop
000009a0: 2004000d  addi $a0,$zero,13
000009a4: 0c0000d5  jal putc
000009a8: 00000000  nop
000009ac: 2004000a  addi $a0,$zero,10
000009b0: 0c0000d5  jal putc
000009b4: 00000000  nop
000009b8: 8fbf0000  lw $ra,0($sp)
000009bc: 23bd0004  addi $sp,$sp,4
000009c0: 03e00008  jr $ra
000009c4: 00000000  nop
             print_ddr_cal_ok:
000009c8: 23bdfffc  addi $sp,$sp,-4
000009cc: afbf0000  sw $ra,0($sp)
000009d0: 20040044  addi $a0,$zero,68
000009d4: 0c0000d5  jal putc
000009d8: 00000000  nop
000009dc: 20040044  addi $a0,$zero,68
000009e0: 0c0000d5  jal putc
000009e4: 00000000  nop
000009e8: 20040052  addi $a0,$zero,82
000009ec: 0c0000d5  jal putc
000009f0: 00000000  nop
000009f4: 20040020  addi $a0,$zero,32
000009f8: 0c0000d5  jal putc
000009fc: 00000000  nop
00000a00: 20040043  addi $a0,$zero,67
00000a04: 0c0000d5  jal putc
00000a08: 00000000  nop
00000a0c: 20040041  addi $a0,$zero,65
00000a10: 0c0000d5  jal putc
00000a14: 00000000  nop
00000a18: 2004004c  addi $a0,$zero,76
00000a1c: 0c0000d5  jal putc
00000a20: 00000000  nop
00000a24: 20040020  addi $a0,$zero,32
00000a28: 0c0000d5  jal putc
00000a2c: 00000000  nop
00000a30: 2004004f  addi $a0,$zero,79
00000a34: 0c0000d5  jal putc
00000a38: 00000000  nop
00000a3c: 2004004b  addi $a0,$zero,75
00000a40: 0c0000d5  jal putc
00000a44: 00000000  nop
00000a48: 2004000d  addi $a0,$zero,13
00000a4c: 0c0000d5  jal putc
00000a50: 00000000  nop
00000a54: 2004000a  addi $a0,$zero,10
00000a58: 0c0000d5  jal putc
00000a5c: 00000000  nop
00000a60: 8fbf0000  lw $ra,0($sp)
00000a64: 23bd0004  addi $sp,$sp,4
00000a68: 03e00008  jr $ra
00000a6c: 00000000  nop
             print_ddr_test_ok:
00000a70: 23bdfffc  addi $sp,$sp,-4
00000a74: afbf0000  sw $ra,0($sp)
00000a78: 20040044  addi $a0,$zero,68
00000a7c: 0c0000d5  jal putc
00000a80: 00000000  nop
00000a84: 20040044  addi $a0,$zero,68
00000a88: 0c0000d5  jal putc
00000a8c: 00000000  nop
00000a90: 20040052  addi $a0,$zero,82
00000a94: 0c0000d5  jal putc
00000a98: 00000000  nop
00000a9c: 20040020  addi $a0,$zero,32
00000aa0: 0c0000d5  jal putc
00000aa4: 00000000  nop
00000aa8: 20040054  addi $a0,$zero,84
00000aac: 0c0000d5  jal putc
00000ab0: 00000000  nop
00000ab4: 20040045  addi $a0,$zero,69
00000ab8: 0c0000d5  jal putc
00000abc: 00000000  nop
00000ac0: 20040053  addi $a0,$zero,83
00000ac4: 0c0000d5  jal putc
00000ac8: 00000000  nop
00000acc: 20040054  addi $a0,$zero,84
00000ad0: 0c0000d5  jal putc
00000ad4: 00000000  nop
00000ad8: 20040020  addi $a0,$zero,32
00000adc: 0c0000d5  jal putc
00000ae0: 00000000  nop
00000ae4: 2004004f  addi $a0,$zero,79
00000ae8: 0c0000d5  jal putc
00000aec: 00000000  nop
00000af0: 2004004b  addi $a0,$zero,75
00000af4: 0c0000d5  jal putc
00000af8: 00000000  nop
00000afc: 2004000d  addi $a0,$zero,13
00000b00: 0c0000d5  jal putc
00000b04: 00000000  nop
00000b08: 2004000a  addi $a0,$zero,10
00000b0c: 0c0000d5  jal putc
00000b10: 00000000  nop
00000b14: 8fbf0000  lw $ra,0($sp)
00000b18: 23bd0004  addi $sp,$sp,4
00000b1c: 03e00008  jr $ra
00000b20: 00000000  nop
             print_os_init_ok:
00000b24: 23bdfffc  addi $sp,$sp,-4
00000b28: afbf0000  sw $ra,0($sp)
00000b2c: 2004004f  addi $a0,$zero,79
00000b30: 0c0000d5  jal putc
00000b34: 00000000  nop
00000b38: 20040053  addi $a0,$zero,83
00000b3c: 0c0000d5  jal putc
00000b40: 00000000  nop
00000b44: 20040020  addi $a0,$zero,32
00000b48: 0c0000d5  jal putc
00000b4c: 00000000  nop
00000b50: 20040049  addi $a0,$zero,73
00000b54: 0c0000d5  jal putc
00000b58: 00000000  nop
00000b5c: 2004004e  addi $a0,$zero,78
00000b60: 0c0000d5  jal putc
00000b64: 00000000  nop
00000b68: 20040049  addi $a0,$zero,73
00000b6c: 0c0000d5  jal putc
00000b70: 00000000  nop
00000b74: 20040054  addi $a0,$zero,84
00000b78: 0c0000d5  jal putc
00000b7c: 00000000  nop
00000b80: 20040020  addi $a0,$zero,32
00000b84: 0c0000d5  jal putc
00000b88: 00000000  nop
00000b8c: 2004004f  addi $a0,$zero,79
00000b90: 0c0000d5  jal putc
00000b94: 00000000  nop
00000b98: 2004004b  addi $a0,$zero,75
00000b9c: 0c0000d5  jal putc
00000ba0: 00000000  nop
00000ba4: 2004000d  addi $a0,$zero,13
00000ba8: 0c0000d5  jal putc
00000bac: 00000000  nop
00000bb0: 2004000a  addi $a0,$zero,10
00000bb4: 0c0000d5  jal putc
00000bb8: 00000000  nop
00000bbc: 8fbf0000  lw $ra,0($sp)
00000bc0: 23bd0004  addi $sp,$sp,4
00000bc4: 03e00008  jr $ra
00000bc8: 00000000  nop
             print_sched_ready:
00000bcc: 23bdfffc  addi $sp,$sp,-4
00000bd0: afbf0000  sw $ra,0($sp)
00000bd4: 20040053  addi $a0,$zero,83
00000bd8: 0c0000d5  jal putc
00000bdc: 00000000  nop
00000be0: 20040043  addi $a0,$zero,67
00000be4: 0c0000d5  jal putc
00000be8: 00000000  nop
00000bec: 20040048  addi $a0,$zero,72
00000bf0: 0c0000d5  jal putc
00000bf4: 00000000  nop
00000bf8: 20040045  addi $a0,$zero,69
00000bfc: 0c0000d5  jal putc
00000c00: 00000000  nop
00000c04: 20040044  addi $a0,$zero,68
00000c08: 0c0000d5  jal putc
00000c0c: 00000000  nop
00000c10: 20040020  addi $a0,$zero,32
00000c14: 0c0000d5  jal putc
00000c18: 00000000  nop
00000c1c: 20040052  addi $a0,$zero,82
00000c20: 0c0000d5  jal putc
00000c24: 00000000  nop
00000c28: 20040045  addi $a0,$zero,69
00000c2c: 0c0000d5  jal putc
00000c30: 00000000  nop
00000c34: 20040041  addi $a0,$zero,65
00000c38: 0c0000d5  jal putc
00000c3c: 00000000  nop
00000c40: 20040044  addi $a0,$zero,68
00000c44: 0c0000d5  jal putc
00000c48: 00000000  nop
00000c4c: 20040059  addi $a0,$zero,89
00000c50: 0c0000d5  jal putc
00000c54: 00000000  nop
00000c58: 2004000d  addi $a0,$zero,13
00000c5c: 0c0000d5  jal putc
00000c60: 00000000  nop
00000c64: 2004000a  addi $a0,$zero,10
00000c68: 0c0000d5  jal putc
00000c6c: 00000000  nop
00000c70: 8fbf0000  lw $ra,0($sp)
00000c74: 23bd0004  addi $sp,$sp,4
00000c78: 03e00008  jr $ra
00000c7c: 00000000  nop
             print_prompt:
00000c80: 23bdfffc  addi $sp,$sp,-4
00000c84: afbf0000  sw $ra,0($sp)
00000c88: 20040073  addi $a0,$zero,115
00000c8c: 0c0000d5  jal putc
00000c90: 00000000  nop
00000c94: 20040074  addi $a0,$zero,116
00000c98: 0c0000d5  jal putc
00000c9c: 00000000  nop
00000ca0: 20040065  addi $a0,$zero,101
00000ca4: 0c0000d5  jal putc
00000ca8: 00000000  nop
00000cac: 20040070  addi $a0,$zero,112
00000cb0: 0c0000d5  jal putc
00000cb4: 00000000  nop
00000cb8: 2004002d  addi $a0,$zero,45
00000cbc: 0c0000d5  jal putc
00000cc0: 00000000  nop
00000cc4: 2004006f  addi $a0,$zero,111
00000cc8: 0c0000d5  jal putc
00000ccc: 00000000  nop
00000cd0: 20040073  addi $a0,$zero,115
00000cd4: 0c0000d5  jal putc
00000cd8: 00000000  nop
00000cdc: 2004003e  addi $a0,$zero,62
00000ce0: 0c0000d5  jal putc
00000ce4: 00000000  nop
00000ce8: 20040020  addi $a0,$zero,32
00000cec: 0c0000d5  jal putc
00000cf0: 00000000  nop
00000cf4: 8fbf0000  lw $ra,0($sp)
00000cf8: 23bd0004  addi $sp,$sp,4
00000cfc: 03e00008  jr $ra
00000d00: 00000000  nop
             print_help:
00000d04: 23bdfffc  addi $sp,$sp,-4
00000d08: afbf0000  sw $ra,0($sp)
00000d0c: 20040068  addi $a0,$zero,104
00000d10: 0c0000d5  jal putc
00000d14: 00000000  nop
00000d18: 20040065  addi $a0,$zero,101
00000d1c: 0c0000d5  jal putc
00000d20: 00000000  nop
00000d24: 2004006c  addi $a0,$zero,108
00000d28: 0c0000d5  jal putc
00000d2c: 00000000  nop
00000d30: 20040070  addi $a0,$zero,112
00000d34: 0c0000d5  jal putc
00000d38: 00000000  nop
00000d3c: 20040020  addi $a0,$zero,32
00000d40: 0c0000d5  jal putc
00000d44: 00000000  nop
00000d48: 20040070  addi $a0,$zero,112
00000d4c: 0c0000d5  jal putc
00000d50: 00000000  nop
00000d54: 20040073  addi $a0,$zero,115
00000d58: 0c0000d5  jal putc
00000d5c: 00000000  nop
00000d60: 20040020  addi $a0,$zero,32
00000d64: 0c0000d5  jal putc
00000d68: 00000000  nop
00000d6c: 2004006d  addi $a0,$zero,109
00000d70: 0c0000d5  jal putc
00000d74: 00000000  nop
00000d78: 20040065  addi $a0,$zero,101
00000d7c: 0c0000d5  jal putc
00000d80: 00000000  nop
00000d84: 2004006d  addi $a0,$zero,109
00000d88: 0c0000d5  jal putc
00000d8c: 00000000  nop
00000d90: 20040020  addi $a0,$zero,32
00000d94: 0c0000d5  jal putc
00000d98: 00000000  nop
00000d9c: 2004006c  addi $a0,$zero,108
00000da0: 0c0000d5  jal putc
00000da4: 00000000  nop
00000da8: 20040065  addi $a0,$zero,101
00000dac: 0c0000d5  jal putc
00000db0: 00000000  nop
00000db4: 20040064  addi $a0,$zero,100
00000db8: 0c0000d5  jal putc
00000dbc: 00000000  nop
00000dc0: 20040020  addi $a0,$zero,32
00000dc4: 0c0000d5  jal putc
00000dc8: 00000000  nop
00000dcc: 20040072  addi $a0,$zero,114
00000dd0: 0c0000d5  jal putc
00000dd4: 00000000  nop
00000dd8: 20040075  addi $a0,$zero,117
00000ddc: 0c0000d5  jal putc
00000de0: 00000000  nop
00000de4: 2004006e  addi $a0,$zero,110
00000de8: 0c0000d5  jal putc
00000dec: 00000000  nop
00000df0: 2004000d  addi $a0,$zero,13
00000df4: 0c0000d5  jal putc
00000df8: 00000000  nop
00000dfc: 2004000a  addi $a0,$zero,10
00000e00: 0c0000d5  jal putc
00000e04: 00000000  nop
00000e08: 8fbf0000  lw $ra,0($sp)
00000e0c: 23bd0004  addi $sp,$sp,4
00000e10: 03e00008  jr $ra
00000e14: 00000000  nop
             print_ps:
00000e18: 23bdfffc  addi $sp,$sp,-4
00000e1c: afbf0000  sw $ra,0($sp)
00000e20: 20040074  addi $a0,$zero,116
00000e24: 0c0000d5  jal putc
00000e28: 00000000  nop
00000e2c: 20040061  addi $a0,$zero,97
00000e30: 0c0000d5  jal putc
00000e34: 00000000  nop
00000e38: 20040073  addi $a0,$zero,115
00000e3c: 0c0000d5  jal putc
00000e40: 00000000  nop
00000e44: 2004006b  addi $a0,$zero,107
00000e48: 0c0000d5  jal putc
00000e4c: 00000000  nop
00000e50: 20040030  addi $a0,$zero,48
00000e54: 0c0000d5  jal putc
00000e58: 00000000  nop
00000e5c: 20040020  addi $a0,$zero,32
00000e60: 0c0000d5  jal putc
00000e64: 00000000  nop
00000e68: 20040073  addi $a0,$zero,115
00000e6c: 0c0000d5  jal putc
00000e70: 00000000  nop
00000e74: 20040068  addi $a0,$zero,104
00000e78: 0c0000d5  jal putc
00000e7c: 00000000  nop
00000e80: 20040065  addi $a0,$zero,101
00000e84: 0c0000d5  jal putc
00000e88: 00000000  nop
00000e8c: 2004006c  addi $a0,$zero,108
00000e90: 0c0000d5  jal putc
00000e94: 00000000  nop
00000e98: 2004006c  addi $a0,$zero,108
00000e9c: 0c0000d5  jal putc
00000ea0: 00000000  nop
00000ea4: 2004000d  addi $a0,$zero,13
00000ea8: 0c0000d5  jal putc
00000eac: 00000000  nop
00000eb0: 2004000a  addi $a0,$zero,10
00000eb4: 0c0000d5  jal putc
00000eb8: 00000000  nop
00000ebc: 20040074  addi $a0,$zero,116
00000ec0: 0c0000d5  jal putc
00000ec4: 00000000  nop
00000ec8: 20040061  addi $a0,$zero,97
00000ecc: 0c0000d5  jal putc
00000ed0: 00000000  nop
00000ed4: 20040073  addi $a0,$zero,115
00000ed8: 0c0000d5  jal putc
00000edc: 00000000  nop
00000ee0: 2004006b  addi $a0,$zero,107
00000ee4: 0c0000d5  jal putc
00000ee8: 00000000  nop
00000eec: 20040031  addi $a0,$zero,49
00000ef0: 0c0000d5  jal putc
00000ef4: 00000000  nop
00000ef8: 20040020  addi $a0,$zero,32
00000efc: 0c0000d5  jal putc
00000f00: 00000000  nop
00000f04: 20040064  addi $a0,$zero,100
00000f08: 0c0000d5  jal putc
00000f0c: 00000000  nop
00000f10: 20040065  addi $a0,$zero,101
00000f14: 0c0000d5  jal putc
00000f18: 00000000  nop
00000f1c: 2004006d  addi $a0,$zero,109
00000f20: 0c0000d5  jal putc
00000f24: 00000000  nop
00000f28: 2004006f  addi $a0,$zero,111
00000f2c: 0c0000d5  jal putc
00000f30: 00000000  nop
00000f34: 2004000d  addi $a0,$zero,13
00000f38: 0c0000d5  jal putc
00000f3c: 00000000  nop
00000f40: 2004000a  addi $a0,$zero,10
00000f44: 0c0000d5  jal putc
00000f48: 00000000  nop
00000f4c: 8fbf0000  lw $ra,0($sp)
00000f50: 23bd0004  addi $sp,$sp,4
00000f54: 03e00008  jr $ra
00000f58: 00000000  nop
             print_ok:
00000f5c: 23bdfffc  addi $sp,$sp,-4
00000f60: afbf0000  sw $ra,0($sp)
00000f64: 2004004f  addi $a0,$zero,79
00000f68: 0c0000d5  jal putc
00000f6c: 00000000  nop
00000f70: 2004004b  addi $a0,$zero,75
00000f74: 0c0000d5  jal putc
00000f78: 00000000  nop
00000f7c: 2004000d  addi $a0,$zero,13
00000f80: 0c0000d5  jal putc
00000f84: 00000000  nop
00000f88: 2004000a  addi $a0,$zero,10
00000f8c: 0c0000d5  jal putc
00000f90: 00000000  nop
00000f94: 8fbf0000  lw $ra,0($sp)
00000f98: 23bd0004  addi $sp,$sp,4
00000f9c: 03e00008  jr $ra
00000fa0: 00000000  nop
             print_demo_started:
00000fa4: 23bdfffc  addi $sp,$sp,-4
00000fa8: afbf0000  sw $ra,0($sp)
00000fac: 20040064  addi $a0,$zero,100
00000fb0: 0c0000d5  jal putc
00000fb4: 00000000  nop
00000fb8: 20040065  addi $a0,$zero,101
00000fbc: 0c0000d5  jal putc
00000fc0: 00000000  nop
00000fc4: 2004006d  addi $a0,$zero,109
00000fc8: 0c0000d5  jal putc
00000fcc: 00000000  nop
00000fd0: 2004006f  addi $a0,$zero,111
00000fd4: 0c0000d5  jal putc
00000fd8: 00000000  nop
00000fdc: 20040020  addi $a0,$zero,32
00000fe0: 0c0000d5  jal putc
00000fe4: 00000000  nop
00000fe8: 20040073  addi $a0,$zero,115
00000fec: 0c0000d5  jal putc
00000ff0: 00000000  nop
00000ff4: 20040074  addi $a0,$zero,116
00000ff8: 0c0000d5  jal putc
00000ffc: 00000000  nop
00001000: 20040061  addi $a0,$zero,97
00001004: 0c0000d5  jal putc
00001008: 00000000  nop
0000100c: 20040072  addi $a0,$zero,114
00001010: 0c0000d5  jal putc
00001014: 00000000  nop
00001018: 20040074  addi $a0,$zero,116
0000101c: 0c0000d5  jal putc
00001020: 00000000  nop
00001024: 20040065  addi $a0,$zero,101
00001028: 0c0000d5  jal putc
0000102c: 00000000  nop
00001030: 20040064  addi $a0,$zero,100
00001034: 0c0000d5  jal putc
00001038: 00000000  nop
0000103c: 2004000d  addi $a0,$zero,13
00001040: 0c0000d5  jal putc
00001044: 00000000  nop
00001048: 2004000a  addi $a0,$zero,10
0000104c: 0c0000d5  jal putc
00001050: 00000000  nop
00001054: 8fbf0000  lw $ra,0($sp)
00001058: 23bd0004  addi $sp,$sp,4
0000105c: 03e00008  jr $ra
00001060: 00000000  nop
             print_unknown:
00001064: 23bdfffc  addi $sp,$sp,-4
00001068: afbf0000  sw $ra,0($sp)
0000106c: 2004003f  addi $a0,$zero,63
00001070: 0c0000d5  jal putc
00001074: 00000000  nop
00001078: 2004000d  addi $a0,$zero,13
0000107c: 0c0000d5  jal putc
00001080: 00000000  nop
00001084: 2004000a  addi $a0,$zero,10
00001088: 0c0000d5  jal putc
0000108c: 00000000  nop
00001090: 8fbf0000  lw $ra,0($sp)
00001094: 23bd0004  addi $sp,$sp,4
00001098: 03e00008  jr $ra
0000109c: 00000000  nop
             print_fail_d:
000010a0: 23bdfffc  addi $sp,$sp,-4
000010a4: afbf0000  sw $ra,0($sp)
000010a8: 2004004f  addi $a0,$zero,79
000010ac: 0c0000d5  jal putc
000010b0: 00000000  nop
000010b4: 20040053  addi $a0,$zero,83
000010b8: 0c0000d5  jal putc
000010bc: 00000000  nop
000010c0: 20040020  addi $a0,$zero,32
000010c4: 0c0000d5  jal putc
000010c8: 00000000  nop
000010cc: 20040046  addi $a0,$zero,70
000010d0: 0c0000d5  jal putc
000010d4: 00000000  nop
000010d8: 20040041  addi $a0,$zero,65
000010dc: 0c0000d5  jal putc
000010e0: 00000000  nop
000010e4: 20040049  addi $a0,$zero,73
000010e8: 0c0000d5  jal putc
000010ec: 00000000  nop
000010f0: 2004004c  addi $a0,$zero,76
000010f4: 0c0000d5  jal putc
000010f8: 00000000  nop
000010fc: 20040020  addi $a0,$zero,32
00001100: 0c0000d5  jal putc
00001104: 00000000  nop
00001108: 20040044  addi $a0,$zero,68
0000110c: 0c0000d5  jal putc
00001110: 00000000  nop
00001114: 2004000d  addi $a0,$zero,13
00001118: 0c0000d5  jal putc
0000111c: 00000000  nop
00001120: 2004000a  addi $a0,$zero,10
00001124: 0c0000d5  jal putc
00001128: 00000000  nop
0000112c: 8fbf0000  lw $ra,0($sp)
00001130: 23bd0004  addi $sp,$sp,4
00001134: 03e00008  jr $ra
00001138: 00000000  nop
